target datalayout = "e-m:e-p270:32:32-p271:32:32-p272:64:64-i64:64-i128:128-f80:128-n8:16:32:64-S128"
target triple = "x86_64-pc-linux-gnu"

%struct._zend_array = type { %struct._zend_refcounted_h, %union.anon.0, i32, %union.anon.1, i32, i32, i32, i32, i64, ptr }
%struct._zend_refcounted_h = type { i32, %union.anon }
%union.anon = type { i32 }
%union.anon.0 = type { i32 }
%union.anon.1 = type { ptr }
%struct._zend_executor_globals = type { %struct._zval_struct, %struct._zval_struct, [32 x ptr], ptr, ptr, %struct._zend_array, %struct._zend_array, ptr, i32, i8, %struct._zval_struct, i32, ptr, ptr, ptr, ptr, ptr, ptr, i64, ptr, ptr, i32, ptr, i32, i64, i32, i32, i32, i8, i8, %struct.zend_atomic_bool_s, %struct.zend_atomic_bool_s, ptr, i64, ptr, ptr, %struct._zend_array, %struct._zend_array, i32, i8, %struct._zval_struct, %struct._zval_struct, %struct._zend_stack, %struct._zend_stack, %struct._zend_stack, ptr, i32, i32, i64, ptr, ptr, ptr, %struct._zend_objects_store, %struct._zend_lazy_objects_store, ptr, ptr, ptr, [3 x %struct._zend_op], ptr, i8, i8, i64, i32, i32, ptr, [16 x %struct._HashTableIterator], ptr, %union._zend_function, %struct._zend_op, %struct._zend_array, i64, %struct.zend_get_gc_buffer, ptr, ptr, ptr, i64, i8, i32, ptr, ptr, i64, %struct._zend_call_stack, i64, i64, %struct._zend_strtod_state, [6 x ptr] }
%struct.zend_atomic_bool_s = type { i8 }
%struct._zval_struct = type { %union._zend_value, %union.anon.3, %union.anon.6 }
%union._zend_value = type { i64 }
%union.anon.3 = type { i32 }
%union.anon.6 = type { i32 }
%struct._zend_stack = type { i32, i32, i32, ptr }
%struct._zend_objects_store = type { ptr, i32, i32, i32 }
%struct._zend_lazy_objects_store = type { %struct._zend_array }
%struct._HashTableIterator = type { ptr, i32, i32 }
%union._zend_function = type { %struct._zend_op_array }
%struct._zend_op_array = type { i8, [3 x i8], i32, ptr, ptr, ptr, i32, i32, ptr, ptr, ptr, ptr, i32, ptr, i32, i32, i32, ptr, ptr, ptr, ptr, ptr, i32, i32, ptr, ptr, ptr, i32, i32, i32, i32, ptr, ptr, [6 x ptr] }
%struct._zend_op = type { ptr, %union._znode_op, %union._znode_op, %union._znode_op, i32, i32, i8, i8, i8, i8 }
%union._znode_op = type { i32 }
%struct.zend_get_gc_buffer = type { ptr, ptr, ptr }
%struct._zend_call_stack = type { ptr, i64 }
%struct._zend_strtod_state = type { [8 x ptr], ptr, ptr }
%struct._php_hash_ops = type { ptr, ptr, ptr, ptr, ptr, ptr, ptr, ptr, i64, i64, i64, i8 }
%struct._zend_string = type { %struct._zend_refcounted_h, i64, i64, [1 x i8] }
%struct._php_hashcontext_object = type { ptr, ptr, i64, ptr, %struct._zend_object }
%struct._zend_object = type { %struct._zend_refcounted_h, i32, i32, ptr, ptr, ptr, [1 x %struct._zval_struct] }
%struct._zend_execute_data = type { ptr, ptr, ptr, ptr, %struct._zval_struct, ptr, ptr, ptr, ptr }

@executor_globals = external global %struct._zend_executor_globals, align 8
@php_hashcontext_ce = dso_local global ptr null, align 8
@.str.5 = private unnamed_addr constant [3 x i8] c"OS\00", align 1
@.str.6 = private unnamed_addr constant [43 x i8] c"must be a valid, non-finalized HashContext\00", align 1

; Function Attrs: inlinehint nounwind uwtable
define internal ptr @php_hashcontext_from_object(ptr noundef %0) #7 {
  %2 = alloca ptr, align 8
  store ptr %0, ptr %2, align 8, !tbaa !59
  %3 = load ptr, ptr %2, align 8, !tbaa !59
  %4 = getelementptr inbounds %struct._zend_object, ptr %3, i64 1
  %5 = getelementptr inbounds %struct._php_hashcontext_object, ptr %4, i64 -1
  ret ptr %5
}

; Function Attrs: nounwind uwtable
define hidden void @zif_hash_update(ptr noundef %0, ptr noundef %1) #0 {
  %3 = alloca ptr, align 8
  %4 = alloca ptr, align 8
  %5 = alloca ptr, align 8
  %6 = alloca ptr, align 8
  %7 = alloca ptr, align 8
  %8 = alloca i32, align 4
  store ptr %0, ptr %3, align 8, !tbaa !51
  store ptr %1, ptr %4, align 8, !tbaa !13
  call void @llvm.lifetime.start.p0(i64 8, ptr %5) #16
  call void @llvm.lifetime.start.p0(i64 8, ptr %6) #16
  call void @llvm.lifetime.start.p0(i64 8, ptr %7) #16
  %9 = load ptr, ptr %3, align 8, !tbaa !51
  %10 = getelementptr inbounds nuw %struct._zend_execute_data, ptr %9, i32 0, i32 4
  %11 = getelementptr inbounds nuw %struct._zval_struct, ptr %10, i32 0, i32 2
  %12 = load i32, ptr %11, align 4, !tbaa !15
  %13 = load ptr, ptr @php_hashcontext_ce, align 8, !tbaa !99
  %14 = call i32 (i32, ptr, ...) @zend_parse_parameters(i32 noundef %12, ptr noundef @.str.5, ptr noundef %5, ptr noundef %13, ptr noundef %7)
  %15 = icmp eq i32 %14, -1
  br i1 %15, label %16, label %22

16:                                               ; preds = %2
  br label %17

17:                                               ; preds = %16
  %18 = load ptr, ptr getelementptr inbounds nuw (%struct._zend_executor_globals, ptr @executor_globals, i32 0, i32 54), align 8, !tbaa !67
  %19 = icmp ne ptr %18, null
  call void @llvm.assume(i1 %19)
  store i32 1, ptr %8, align 4
  br label %60

20:                                               ; No predecessors!
  br label %21

21:                                               ; preds = %20
  br label %22

22:                                               ; preds = %21, %2
  %23 = load ptr, ptr %5, align 8, !tbaa !13
  %24 = getelementptr inbounds nuw %struct._zval_struct, ptr %23, i32 0, i32 0
  %25 = load ptr, ptr %24, align 8, !tbaa !15
  %26 = call ptr @php_hashcontext_from_object(ptr noundef %25)
  store ptr %26, ptr %6, align 8, !tbaa !24
  %27 = load ptr, ptr %6, align 8, !tbaa !24
  %28 = getelementptr inbounds nuw %struct._php_hashcontext_object, ptr %27, i32 0, i32 1
  %29 = load ptr, ptr %28, align 8, !tbaa !26
  %30 = icmp ne ptr %29, null
  br i1 %30, label %37, label %31

31:                                               ; preds = %22
  call void (i32, ptr, ...) @zend_argument_type_error(i32 noundef 1, ptr noundef @.str.6)
  br label %32

32:                                               ; preds = %31
  %33 = load ptr, ptr getelementptr inbounds nuw (%struct._zend_executor_globals, ptr @executor_globals, i32 0, i32 54), align 8, !tbaa !67
  %34 = icmp ne ptr %33, null
  call void @llvm.assume(i1 %34)
  store i32 1, ptr %8, align 4
  br label %60

35:                                               ; No predecessors!
  br label %36

36:                                               ; preds = %35
  br label %37

37:                                               ; preds = %36, %22
  %38 = load ptr, ptr %6, align 8, !tbaa !24
  %39 = getelementptr inbounds nuw %struct._php_hashcontext_object, ptr %38, i32 0, i32 0
  %40 = load ptr, ptr %39, align 8, !tbaa !32
  %41 = getelementptr inbounds nuw %struct._php_hash_ops, ptr %40, i32 0, i32 2
  %42 = load ptr, ptr %41, align 8, !tbaa !95
  %43 = load ptr, ptr %6, align 8, !tbaa !24
  %44 = getelementptr inbounds nuw %struct._php_hashcontext_object, ptr %43, i32 0, i32 1
  %45 = load ptr, ptr %44, align 8, !tbaa !26
  %46 = load ptr, ptr %7, align 8, !tbaa !4
  %47 = getelementptr inbounds nuw %struct._zend_string, ptr %46, i32 0, i32 3
  %48 = getelementptr inbounds [1 x i8], ptr %47, i64 0, i64 0
  %49 = load ptr, ptr %7, align 8, !tbaa !4
  %50 = getelementptr inbounds nuw %struct._zend_string, ptr %49, i32 0, i32 2
  %51 = load i64, ptr %50, align 8, !tbaa !48
  call void %42(ptr noundef %45, ptr noundef %48, i64 noundef %51)
  br label %52

52:                                               ; preds = %37
  br label %53

53:                                               ; preds = %52
  %54 = load ptr, ptr %4, align 8, !tbaa !13
  %55 = getelementptr inbounds nuw %struct._zval_struct, ptr %54, i32 0, i32 1
  store i32 3, ptr %55, align 8, !tbaa !15
  br label %56

56:                                               ; preds = %53
  br label %57

57:                                               ; preds = %56
  store i32 1, ptr %8, align 4
  br label %60

58:                                               ; No predecessors!
  br label %59

59:                                               ; preds = %58
  store i32 0, ptr %8, align 4
  br label %60

60:                                               ; preds = %59, %57, %32, %17
  call void @llvm.lifetime.end.p0(i64 8, ptr %7) #16
  call void @llvm.lifetime.end.p0(i64 8, ptr %6) #16
  call void @llvm.lifetime.end.p0(i64 8, ptr %5) #16
  %61 = load i32, ptr %8, align 4
  switch i32 %61, label %63 [
    i32 0, label %62
    i32 1, label %62
  ]

62:                                               ; preds = %60, %60
  ret void

63:                                               ; preds = %60
  unreachable
}