; Function Attrs: nounwind uwtable
define hidden void @zif_hash_update(ptr noundef readonly captures(none) %0, ptr noundef writeonly captures(none) %1) #0 {
  %3 = alloca ptr, align 8
  %4 = alloca ptr, align 8
  call void @llvm.lifetime.start.p0(i64 8, ptr nonnull %3) #16
  call void @llvm.lifetime.start.p0(i64 8, ptr nonnull %4) #16
  %5 = getelementptr inbounds nuw i8, ptr %0, i64 44
  %6 = load i32, ptr %5, align 4, !tbaa !4
  %7 = load ptr, ptr @php_hashcontext_ce, align 8, !tbaa !85
  %8 = call i32 (i32, ptr, ...) @zend_parse_parameters(i32 noundef %6, ptr noundef nonnull @.str.5, ptr noundef nonnull %3, ptr noundef %7, ptr noundef nonnull %4) #16
  %9 = icmp eq i32 %8, -1
  br i1 %9, label %10, label %13

10:                                               ; preds = %2
  %11 = load ptr, ptr getelementptr inbounds nuw (i8, ptr @executor_globals, i64 960), align 8, !tbaa !47
  %12 = icmp ne ptr %11, null
  call void @llvm.assume(i1 %12)
  br label %31

13:                                               ; preds = %2
  %14 = load ptr, ptr %3, align 8, !tbaa !88
  %15 = load ptr, ptr %14, align 8, !tbaa !4
  %16 = getelementptr inbounds i8, ptr %15, i64 -24
  %17 = load ptr, ptr %16, align 8, !tbaa !19
  %.not = icmp eq ptr %17, null
  br i1 %.not, label %18, label %21

18:                                               ; preds = %13
  call void (i32, ptr, ...) @zend_argument_type_error(i32 noundef 1, ptr noundef nonnull @.str.6) #16
  %19 = load ptr, ptr getelementptr inbounds nuw (i8, ptr @executor_globals, i64 960), align 8, !tbaa !47
  %20 = icmp ne ptr %19, null
  call void @llvm.assume(i1 %20)
  br label %31

21:                                               ; preds = %13
  %22 = getelementptr inbounds i8, ptr %15, i64 -32
  %23 = load ptr, ptr %22, align 8, !tbaa !26
  %24 = getelementptr inbounds nuw i8, ptr %23, i64 16
  %25 = load ptr, ptr %24, align 8, !tbaa !80
  %26 = load ptr, ptr %4, align 8, !tbaa !40
  %27 = getelementptr inbounds nuw i8, ptr %26, i64 24
  %28 = getelementptr inbounds nuw i8, ptr %26, i64 16
  %29 = load i64, ptr %28, align 8, !tbaa !33
  call void %25(ptr noundef nonnull %17, ptr noundef nonnull %27, i64 noundef %29) #16
  %30 = getelementptr inbounds nuw i8, ptr %1, i64 8
  store i32 3, ptr %30, align 8, !tbaa !4
  br label %31

31:                                               ; preds = %21, %18, %10
  call void @llvm.lifetime.end.p0(i64 8, ptr nonnull %4) #16
  call void @llvm.lifetime.end.p0(i64 8, ptr nonnull %3) #16
  ret void
}